target datalayout = "e-m:e-p270:32:32-p271:32:32-p272:64:64-i64:64-i128:128-f80:128-n8:16:32:64-S128"
target triple = "x86_64-pc-linux-gnu"

%"class.clang::NestedNameSpecifierLocBuilder" = type { ptr, ptr, i32, i32 }

; Function Attrs: mustprogress nounwind uwtable
define dso_local noundef nonnull align 8 dereferenceable(24) ptr @_ZN5clang29NestedNameSpecifierLocBuilderaSERKS0_(ptr noundef nonnull align 8 dereferenceable(24) %0, ptr noundef nonnull align 8 dereferenceable(24) %1) #0 align 2 {
  %3 = alloca ptr, align 8
  %4 = alloca ptr, align 8
  %5 = alloca ptr, align 8
  store ptr %0, ptr %4, align 8
  store ptr %1, ptr %5, align 8
  %6 = load ptr, ptr %4, align 8
  %7 = load ptr, ptr %5, align 8
  %8 = getelementptr inbounds nuw %"class.clang::NestedNameSpecifierLocBuilder", ptr %7, i32 0, i32 0
  %9 = load ptr, ptr %8, align 8
  %10 = getelementptr inbounds nuw %"class.clang::NestedNameSpecifierLocBuilder", ptr %6, i32 0, i32 0
  store ptr %9, ptr %10, align 8
  %11 = getelementptr inbounds nuw %"class.clang::NestedNameSpecifierLocBuilder", ptr %6, i32 0, i32 1
  %12 = load ptr, ptr %11, align 8
  %13 = icmp ne ptr %12, null
  br i1 %13, label %14, label %39

14:                                               ; preds = %2
  %15 = load ptr, ptr %5, align 8
  %16 = getelementptr inbounds nuw %"class.clang::NestedNameSpecifierLocBuilder", ptr %15, i32 0, i32 1
  %17 = load ptr, ptr %16, align 8
  %18 = icmp ne ptr %17, null
  br i1 %18, label %19, label %39

19:                                               ; preds = %14
  %20 = getelementptr inbounds nuw %"class.clang::NestedNameSpecifierLocBuilder", ptr %6, i32 0, i32 3
  %21 = load i32, ptr %20, align 4
  %22 = load ptr, ptr %5, align 8
  %23 = getelementptr inbounds nuw %"class.clang::NestedNameSpecifierLocBuilder", ptr %22, i32 0, i32 2
  %24 = load i32, ptr %23, align 8
  %25 = icmp uge i32 %21, %24
  br i1 %25, label %26, label %39

26:                                               ; preds = %19
  %27 = load ptr, ptr %5, align 8
  %28 = getelementptr inbounds nuw %"class.clang::NestedNameSpecifierLocBuilder", ptr %27, i32 0, i32 2
  %29 = load i32, ptr %28, align 8
  %30 = getelementptr inbounds nuw %"class.clang::NestedNameSpecifierLocBuilder", ptr %6, i32 0, i32 2
  store i32 %29, ptr %30, align 8
  %31 = getelementptr inbounds nuw %"class.clang::NestedNameSpecifierLocBuilder", ptr %6, i32 0, i32 1
  %32 = load ptr, ptr %31, align 8
  %33 = load ptr, ptr %5, align 8
  %34 = getelementptr inbounds nuw %"class.clang::NestedNameSpecifierLocBuilder", ptr %33, i32 0, i32 1
  %35 = load ptr, ptr %34, align 8
  %36 = getelementptr inbounds nuw %"class.clang::NestedNameSpecifierLocBuilder", ptr %6, i32 0, i32 2
  %37 = load i32, ptr %36, align 8
  %38 = zext i32 %37 to i64
  call void @llvm.memcpy.p0.p0.i64(ptr align 1 %32, ptr align 1 %35, i64 %38, i1 false)
  store ptr %6, ptr %3, align 8
  br label %85

39:                                               ; preds = %19, %14, %2
  %40 = getelementptr inbounds nuw %"class.clang::NestedNameSpecifierLocBuilder", ptr %6, i32 0, i32 3
  %41 = load i32, ptr %40, align 4
  %42 = icmp ne i32 %41, 0
  br i1 %42, label %43, label %47

43:                                               ; preds = %39
  %44 = getelementptr inbounds nuw %"class.clang::NestedNameSpecifierLocBuilder", ptr %6, i32 0, i32 1
  %45 = load ptr, ptr %44, align 8
  call void @free(ptr noundef %45) #11
  %46 = getelementptr inbounds nuw %"class.clang::NestedNameSpecifierLocBuilder", ptr %6, i32 0, i32 3
  store i32 0, ptr %46, align 4
  br label %47

47:                                               ; preds = %43, %39
  %48 = load ptr, ptr %5, align 8
  %49 = getelementptr inbounds nuw %"class.clang::NestedNameSpecifierLocBuilder", ptr %48, i32 0, i32 1
  %50 = load ptr, ptr %49, align 8
  %51 = icmp ne ptr %50, null
  br i1 %51, label %55, label %52

52:                                               ; preds = %47
  %53 = getelementptr inbounds nuw %"class.clang::NestedNameSpecifierLocBuilder", ptr %6, i32 0, i32 1
  store ptr null, ptr %53, align 8
  %54 = getelementptr inbounds nuw %"class.clang::NestedNameSpecifierLocBuilder", ptr %6, i32 0, i32 2
  store i32 0, ptr %54, align 8
  store ptr %6, ptr %3, align 8
  br label %85

55:                                               ; preds = %47
  %56 = load ptr, ptr %5, align 8
  %57 = getelementptr inbounds nuw %"class.clang::NestedNameSpecifierLocBuilder", ptr %56, i32 0, i32 3
  %58 = load i32, ptr %57, align 4
  %59 = icmp eq i32 %58, 0
  br i1 %59, label %60, label %69

60:                                               ; preds = %55
  %61 = load ptr, ptr %5, align 8
  %62 = getelementptr inbounds nuw %"class.clang::NestedNameSpecifierLocBuilder", ptr %61, i32 0, i32 1
  %63 = load ptr, ptr %62, align 8
  %64 = getelementptr inbounds nuw %"class.clang::NestedNameSpecifierLocBuilder", ptr %6, i32 0, i32 1
  store ptr %63, ptr %64, align 8
  %65 = load ptr, ptr %5, align 8
  %66 = getelementptr inbounds nuw %"class.clang::NestedNameSpecifierLocBuilder", ptr %65, i32 0, i32 2
  %67 = load i32, ptr %66, align 8
  %68 = getelementptr inbounds nuw %"class.clang::NestedNameSpecifierLocBuilder", ptr %6, i32 0, i32 2
  store i32 %67, ptr %68, align 8
  store ptr %6, ptr %3, align 8
  br label %85

69:                                               ; preds = %55
  %70 = getelementptr inbounds nuw %"class.clang::NestedNameSpecifierLocBuilder", ptr %6, i32 0, i32 2
  store i32 0, ptr %70, align 8
  %71 = load ptr, ptr %5, align 8
  %72 = getelementptr inbounds nuw %"class.clang::NestedNameSpecifierLocBuilder", ptr %71, i32 0, i32 1
  %73 = load ptr, ptr %72, align 8
  %74 = load ptr, ptr %5, align 8
  %75 = getelementptr inbounds nuw %"class.clang::NestedNameSpecifierLocBuilder", ptr %74, i32 0, i32 1
  %76 = load ptr, ptr %75, align 8
  %77 = load ptr, ptr %5, align 8
  %78 = getelementptr inbounds nuw %"class.clang::NestedNameSpecifierLocBuilder", ptr %77, i32 0, i32 2
  %79 = load i32, ptr %78, align 8
  %80 = zext i32 %79 to i64
  %81 = getelementptr inbounds i8, ptr %76, i64 %80
  %82 = getelementptr inbounds nuw %"class.clang::NestedNameSpecifierLocBuilder", ptr %6, i32 0, i32 1
  %83 = getelementptr inbounds nuw %"class.clang::NestedNameSpecifierLocBuilder", ptr %6, i32 0, i32 2
  %84 = getelementptr inbounds nuw %"class.clang::NestedNameSpecifierLocBuilder", ptr %6, i32 0, i32 3
  call void @_ZL6AppendPcS_RS_RjS1_(ptr noundef %73, ptr noundef %81, ptr noundef nonnull align 8 dereferenceable(8) %82, ptr noundef nonnull align 4 dereferenceable(4) %83, ptr noundef nonnull align 4 dereferenceable(4) %84)
  store ptr %6, ptr %3, align 8
  br label %85

85:                                               ; preds = %69, %60, %52, %26
  %86 = load ptr, ptr %3, align 8
  ret ptr %86
}