; Function Attrs: mustprogress nounwind uwtable
define dso_local noundef nonnull align 8 dereferenceable(24) ptr @_ZN5clang29NestedNameSpecifierLocBuilderaSERKS0_(ptr noundef nonnull returned align 8 dereferenceable(24) %0, ptr nocapture noundef nonnull readonly align 8 dereferenceable(24) %1) local_unnamed_addr #0 align 2 {
  %3 = load ptr, ptr %1, align 8
  store ptr %3, ptr %0, align 8
  %4 = getelementptr inbounds nuw i8, ptr %0, i64 8
  %5 = load ptr, ptr %4, align 8
  %.not = icmp eq ptr %5, null
  br i1 %.not, label %18, label %6

6:                                                ; preds = %2
  %7 = getelementptr inbounds nuw i8, ptr %1, i64 8
  %8 = load ptr, ptr %7, align 8
  %.not15 = icmp eq ptr %8, null
  br i1 %.not15, label %18, label %9

9:                                                ; preds = %6
  %10 = getelementptr inbounds nuw i8, ptr %0, i64 20
  %11 = load i32, ptr %10, align 4
  %12 = getelementptr inbounds nuw i8, ptr %1, i64 16
  %13 = load i32, ptr %12, align 8
  %.not16 = icmp ult i32 %11, %13
  br i1 %.not16, label %18, label %14

14:                                               ; preds = %9
  %15 = getelementptr inbounds nuw i8, ptr %0, i64 16
  store i32 %13, ptr %15, align 8
  %16 = load ptr, ptr %7, align 8
  %17 = zext i32 %13 to i64
  tail call void @llvm.memcpy.p0.p0.i64(ptr nonnull align 1 %5, ptr align 1 %16, i64 %17, i1 false)
  br label %42

18:                                               ; preds = %9, %6, %2
  %19 = getelementptr inbounds nuw i8, ptr %0, i64 20
  %20 = load i32, ptr %19, align 4
  %.not17 = icmp eq i32 %20, 0
  br i1 %.not17, label %22, label %21

21:                                               ; preds = %18
  tail call void @free(ptr noundef %5) #16
  store i32 0, ptr %19, align 4
  br label %22

22:                                               ; preds = %21, %18
  %23 = getelementptr inbounds nuw i8, ptr %1, i64 8
  %24 = load ptr, ptr %23, align 8
  %.not18 = icmp eq ptr %24, null
  br i1 %.not18, label %25, label %27

25:                                               ; preds = %22
  store ptr null, ptr %4, align 8
  %26 = getelementptr inbounds nuw i8, ptr %0, i64 16
  store i32 0, ptr %26, align 8
  br label %42

27:                                               ; preds = %22
  %28 = getelementptr inbounds nuw i8, ptr %1, i64 20
  %29 = load i32, ptr %28, align 4
  %30 = icmp eq i32 %29, 0
  br i1 %30, label %31, label %35

31:                                               ; preds = %27
  store ptr %24, ptr %4, align 8
  %32 = getelementptr inbounds nuw i8, ptr %1, i64 16
  %33 = load i32, ptr %32, align 8
  %34 = getelementptr inbounds nuw i8, ptr %0, i64 16
  store i32 %33, ptr %34, align 8
  br label %42

35:                                               ; preds = %27
  %36 = getelementptr inbounds nuw i8, ptr %0, i64 16
  store i32 0, ptr %36, align 8
  %37 = load ptr, ptr %23, align 8
  %38 = getelementptr inbounds nuw i8, ptr %1, i64 16
  %39 = load i32, ptr %38, align 8
  %40 = zext i32 %39 to i64
  %41 = getelementptr inbounds i8, ptr %37, i64 %40
  tail call fastcc void @_ZL6AppendPcS_RS_RjS1_(ptr noundef %37, ptr noundef %41, ptr noundef nonnull align 8 dereferenceable(8) %4, ptr noundef nonnull align 4 dereferenceable(4) %36, ptr noundef nonnull align 4 dereferenceable(4) %19)
  br label %42

42:                                               ; preds = %35, %31, %25, %14
  ret ptr %0
}